target datalayout = "e-m:e-p270:32:32-p271:32:32-p272:64:64-i64:64-i128:128-f80:128-n8:16:32:64-S128"
target triple = "x86_64-pc-linux-gnu"

%struct.GetBitContext = type { ptr, ptr, i32, i32, i32 }
%struct.CodedBitstreamContext = type { ptr, ptr, ptr, ptr, i32, i32, i32, ptr, ptr, ptr, ptr, i64 }

@.str.8 = private unnamed_addr constant [30 x i8] c"Assertion %s failed at %s:%d\0A\00", align 1
@.str.10 = private unnamed_addr constant [21 x i8] c"libavcodec/cbs_vp9.c\00", align 1
@.str.12 = private unnamed_addr constant [31 x i8] c"start_position <= end_position\00", align 1
@.str.60 = private unnamed_addr constant [46 x i8] c"Invalid signed value at %s: bitstream ended.\0A\00", align 1

; Function Attrs: alwaysinline nounwind willreturn memory(none) uwtable
define internal i32 @av_bswap32(i32 noundef %0) #7 {
  %2 = alloca i32, align 4
  store i32 %0, ptr %2, align 4, !tbaa !11
  %3 = load i32, ptr %2, align 4, !tbaa !11
  %4 = shl i32 %3, 8
  %5 = and i32 %4, 65280
  %6 = load i32, ptr %2, align 4, !tbaa !11
  %7 = lshr i32 %6, 8
  %8 = and i32 %7, 255
  %9 = or i32 %5, %8
  %10 = shl i32 %9, 16
  %11 = load i32, ptr %2, align 4, !tbaa !11
  %12 = lshr i32 %11, 16
  %13 = shl i32 %12, 8
  %14 = and i32 %13, 65280
  %15 = load i32, ptr %2, align 4, !tbaa !11
  %16 = lshr i32 %15, 16
  %17 = lshr i32 %16, 8
  %18 = and i32 %17, 255
  %19 = or i32 %14, %18
  %20 = or i32 %10, %19
  ret i32 %20
}

; Function Attrs: inlinehint nounwind uwtable
define internal i32 @get_bits_count(ptr noundef %0) #3 {
  %2 = alloca ptr, align 8
  store ptr %0, ptr %2, align 8, !tbaa !62
  %3 = load ptr, ptr %2, align 8, !tbaa !62
  %4 = getelementptr inbounds nuw %struct.GetBitContext, ptr %3, i32 0, i32 2
  %5 = load i32, ptr %4, align 8, !tbaa !69
  ret i32 %5
}

; Function Attrs: inlinehint nounwind uwtable
define internal i32 @get_bits1(ptr noundef %0) #3 {
  %2 = alloca ptr, align 8
  %3 = alloca i32, align 4
  %4 = alloca i8, align 1
  store ptr %0, ptr %2, align 8, !tbaa !62
  call void @llvm.lifetime.start.p0(i64 4, ptr %3) #8
  %5 = load ptr, ptr %2, align 8, !tbaa !62
  %6 = getelementptr inbounds nuw %struct.GetBitContext, ptr %5, i32 0, i32 2
  %7 = load i32, ptr %6, align 8, !tbaa !69
  store i32 %7, ptr %3, align 4, !tbaa !11
  call void @llvm.lifetime.start.p0(i64 1, ptr %4) #8
  %8 = load ptr, ptr %2, align 8, !tbaa !62
  %9 = getelementptr inbounds nuw %struct.GetBitContext, ptr %8, i32 0, i32 0
  %10 = load ptr, ptr %9, align 8, !tbaa !64
  %11 = load i32, ptr %3, align 4, !tbaa !11
  %12 = lshr i32 %11, 3
  %13 = zext i32 %12 to i64
  %14 = getelementptr inbounds nuw i8, ptr %10, i64 %13
  %15 = load i8, ptr %14, align 1, !tbaa !20
  store i8 %15, ptr %4, align 1, !tbaa !20
  %16 = load i32, ptr %3, align 4, !tbaa !11
  %17 = and i32 %16, 7
  %18 = load i8, ptr %4, align 1, !tbaa !20
  %19 = zext i8 %18 to i32
  %20 = shl i32 %19, %17
  %21 = trunc i32 %20 to i8
  store i8 %21, ptr %4, align 1, !tbaa !20
  %22 = load i8, ptr %4, align 1, !tbaa !20
  %23 = zext i8 %22 to i32
  %24 = ashr i32 %23, 7
  %25 = trunc i32 %24 to i8
  store i8 %25, ptr %4, align 1, !tbaa !20
  %26 = load ptr, ptr %2, align 8, !tbaa !62
  %27 = getelementptr inbounds nuw %struct.GetBitContext, ptr %26, i32 0, i32 2
  %28 = load i32, ptr %27, align 8, !tbaa !69
  %29 = load ptr, ptr %2, align 8, !tbaa !62
  %30 = getelementptr inbounds nuw %struct.GetBitContext, ptr %29, i32 0, i32 4
  %31 = load i32, ptr %30, align 8, !tbaa !67
  %32 = icmp slt i32 %28, %31
  br i1 %32, label %33, label %36

33:                                               ; preds = %1
  %34 = load i32, ptr %3, align 4, !tbaa !11
  %35 = add i32 %34, 1
  store i32 %35, ptr %3, align 4, !tbaa !11
  br label %36

36:                                               ; preds = %33, %1
  %37 = load i32, ptr %3, align 4, !tbaa !11
  %38 = load ptr, ptr %2, align 8, !tbaa !62
  %39 = getelementptr inbounds nuw %struct.GetBitContext, ptr %38, i32 0, i32 2
  store i32 %37, ptr %39, align 8, !tbaa !69
  %40 = load i8, ptr %4, align 1, !tbaa !20
  %41 = zext i8 %40 to i32
  call void @llvm.lifetime.end.p0(i64 1, ptr %4) #8
  call void @llvm.lifetime.end.p0(i64 4, ptr %3) #8
  ret i32 %41
}

; Function Attrs: inlinehint nounwind uwtable
define internal i32 @get_bits(ptr noundef %0, i32 noundef %1) #3 {
  %3 = alloca ptr, align 8
  %4 = alloca i32, align 4
  %5 = alloca i32, align 4
  %6 = alloca i32, align 4
  %7 = alloca i32, align 4
  %8 = alloca i32, align 4
  store ptr %0, ptr %3, align 8, !tbaa !62
  store i32 %1, ptr %4, align 4, !tbaa !11
  call void @llvm.lifetime.start.p0(i64 4, ptr %5) #8
  call void @llvm.lifetime.start.p0(i64 4, ptr %6) #8
  %9 = load ptr, ptr %3, align 8, !tbaa !62
  %10 = getelementptr inbounds nuw %struct.GetBitContext, ptr %9, i32 0, i32 2
  %11 = load i32, ptr %10, align 8, !tbaa !69
  store i32 %11, ptr %6, align 4, !tbaa !11
  call void @llvm.lifetime.start.p0(i64 4, ptr %7) #8
  call void @llvm.lifetime.start.p0(i64 4, ptr %8) #8
  %12 = load ptr, ptr %3, align 8, !tbaa !62
  %13 = getelementptr inbounds nuw %struct.GetBitContext, ptr %12, i32 0, i32 4
  %14 = load i32, ptr %13, align 8, !tbaa !67
  store i32 %14, ptr %8, align 4, !tbaa !11
  %15 = load ptr, ptr %3, align 8, !tbaa !62
  %16 = getelementptr inbounds nuw %struct.GetBitContext, ptr %15, i32 0, i32 0
  %17 = load ptr, ptr %16, align 8, !tbaa !64
  %18 = load i32, ptr %6, align 4, !tbaa !11
  %19 = lshr i32 %18, 3
  %20 = zext i32 %19 to i64
  %21 = getelementptr inbounds nuw i8, ptr %17, i64 %20
  %22 = load i32, ptr %21, align 1, !tbaa !20
  %23 = call i32 @av_bswap32(i32 noundef %22) #10
  %24 = load i32, ptr %6, align 4, !tbaa !11
  %25 = and i32 %24, 7
  %26 = shl i32 %23, %25
  %27 = lshr i32 %26, 0
  store i32 %27, ptr %7, align 4, !tbaa !11
  %28 = load i32, ptr %7, align 4, !tbaa !11
  %29 = load i32, ptr %4, align 4, !tbaa !11
  %30 = sub nsw i32 32, %29
  %31 = lshr i32 %28, %30
  store i32 %31, ptr %5, align 4, !tbaa !11
  %32 = load i32, ptr %8, align 4, !tbaa !11
  %33 = load i32, ptr %6, align 4, !tbaa !11
  %34 = load i32, ptr %4, align 4, !tbaa !11
  %35 = add i32 %33, %34
  %36 = icmp ugt i32 %32, %35
  br i1 %36, label %37, label %41

37:                                               ; preds = %2
  %38 = load i32, ptr %6, align 4, !tbaa !11
  %39 = load i32, ptr %4, align 4, !tbaa !11
  %40 = add i32 %38, %39
  br label %43

41:                                               ; preds = %2
  %42 = load i32, ptr %8, align 4, !tbaa !11
  br label %43

43:                                               ; preds = %41, %37
  %44 = phi i32 [ %40, %37 ], [ %42, %41 ]
  store i32 %44, ptr %6, align 4, !tbaa !11
  %45 = load i32, ptr %6, align 4, !tbaa !11
  %46 = load ptr, ptr %3, align 8, !tbaa !62
  %47 = getelementptr inbounds nuw %struct.GetBitContext, ptr %46, i32 0, i32 2
  store i32 %45, ptr %47, align 8, !tbaa !69
  %48 = load i32, ptr %5, align 4, !tbaa !11
  call void @llvm.lifetime.end.p0(i64 4, ptr %8) #8
  call void @llvm.lifetime.end.p0(i64 4, ptr %7) #8
  call void @llvm.lifetime.end.p0(i64 4, ptr %6) #8
  call void @llvm.lifetime.end.p0(i64 4, ptr %5) #8
  ret i32 %48
}

; Function Attrs: inlinehint nounwind uwtable
define internal i32 @get_bits_left(ptr noundef %0) #3 {
  %2 = alloca ptr, align 8
  store ptr %0, ptr %2, align 8, !tbaa !62
  %3 = load ptr, ptr %2, align 8, !tbaa !62
  %4 = getelementptr inbounds nuw %struct.GetBitContext, ptr %3, i32 0, i32 3
  %5 = load i32, ptr %4, align 4, !tbaa !66
  %6 = load ptr, ptr %2, align 8, !tbaa !62
  %7 = call i32 @get_bits_count(ptr noundef %6)
  %8 = sub nsw i32 %5, %7
  ret i32 %8
}

; Function Attrs: nounwind uwtable
define internal i32 @cbs_vp9_read_s(ptr noundef %0, ptr noundef %1, i32 noundef %2, ptr noundef %3, ptr noundef %4, ptr noundef %5) #0 {
  %7 = alloca i32, align 4
  %8 = alloca ptr, align 8
  %9 = alloca ptr, align 8
  %10 = alloca i32, align 4
  %11 = alloca ptr, align 8
  %12 = alloca ptr, align 8
  %13 = alloca ptr, align 8
  %14 = alloca i32, align 4
  %15 = alloca i32, align 4
  %16 = alloca i32, align 4
  %17 = alloca %struct.GetBitContext, align 8
  %18 = alloca i32, align 4
  %19 = alloca i32, align 4
  %20 = alloca i32, align 4
  store ptr %0, ptr %8, align 8, !tbaa !4
  store ptr %1, ptr %9, align 8, !tbaa !62
  store i32 %2, ptr %10, align 4, !tbaa !11
  store ptr %3, ptr %11, align 8, !tbaa !57
  store ptr %4, ptr %12, align 8, !tbaa !73
  store ptr %5, ptr %13, align 8, !tbaa !73
  call void @llvm.lifetime.start.p0(i64 4, ptr %14) #8
  call void @llvm.lifetime.start.p0(i64 4, ptr %15) #8
  call void @llvm.lifetime.start.p0(i64 4, ptr %16) #8
  call void @llvm.lifetime.start.p0(i64 32, ptr %17) #8
  br label %21

21:                                               ; preds = %6
  %22 = load ptr, ptr %8, align 8, !tbaa !4
  %23 = getelementptr inbounds nuw %struct.CodedBitstreamContext, ptr %22, i32 0, i32 5
  %24 = load i32, ptr %23, align 4, !tbaa !74
  %25 = icmp ne i32 %24, 0
  br i1 %25, label %26, label %28

26:                                               ; preds = %21
  %27 = load ptr, ptr %9, align 8, !tbaa !62
  call void @llvm.memcpy.p0.p0.i64(ptr align 8 %17, ptr align 8 %27, i64 32, i1 false), !tbaa.struct !75
  br label %28

28:                                               ; preds = %26, %21
  br label %29

29:                                               ; preds = %28
  br label %30

30:                                               ; preds = %29
  %31 = load ptr, ptr %9, align 8, !tbaa !62
  %32 = call i32 @get_bits_left(ptr noundef %31)
  %33 = load i32, ptr %10, align 4, !tbaa !11
  %34 = add nsw i32 %33, 1
  %35 = icmp slt i32 %32, %34
  br i1 %35, label %36, label %41

36:                                               ; preds = %30
  %37 = load ptr, ptr %8, align 8, !tbaa !4
  %38 = getelementptr inbounds nuw %struct.CodedBitstreamContext, ptr %37, i32 0, i32 0
  %39 = load ptr, ptr %38, align 8, !tbaa !24
  %40 = load ptr, ptr %11, align 8, !tbaa !57
  call void (ptr, i32, ptr, ...) @av_log(ptr noundef %39, i32 noundef 16, ptr noundef @.str.60, ptr noundef %40)
  store i32 -1094995529, ptr %7, align 4
  store i32 1, ptr %18, align 4
  br label %91

41:                                               ; preds = %30
  %42 = load ptr, ptr %9, align 8, !tbaa !62
  %43 = load i32, ptr %10, align 4, !tbaa !11
  %44 = call i32 @get_bits(ptr noundef %42, i32 noundef %43)
  store i32 %44, ptr %14, align 4, !tbaa !11
  %45 = load ptr, ptr %9, align 8, !tbaa !62
  %46 = call i32 @get_bits1(ptr noundef %45)
  store i32 %46, ptr %15, align 4, !tbaa !11
  %47 = load i32, ptr %15, align 4, !tbaa !11
  %48 = icmp ne i32 %47, 0
  br i1 %48, label %49, label %52

49:                                               ; preds = %41
  %50 = load i32, ptr %14, align 4, !tbaa !11
  %51 = sub nsw i32 0, %50
  br label %54

52:                                               ; preds = %41
  %53 = load i32, ptr %14, align 4, !tbaa !11
  br label %54

54:                                               ; preds = %52, %49
  %55 = phi i32 [ %51, %49 ], [ %53, %52 ]
  store i32 %55, ptr %16, align 4, !tbaa !11
  br label %56

56:                                               ; preds = %54
  %57 = load ptr, ptr %8, align 8, !tbaa !4
  %58 = getelementptr inbounds nuw %struct.CodedBitstreamContext, ptr %57, i32 0, i32 5
  %59 = load i32, ptr %58, align 4, !tbaa !74
  %60 = icmp ne i32 %59, 0
  br i1 %60, label %61, label %86

61:                                               ; preds = %56
  call void @llvm.lifetime.start.p0(i64 4, ptr %19) #8
  %62 = call i32 @get_bits_count(ptr noundef %17)
  store i32 %62, ptr %19, align 4, !tbaa !11
  call void @llvm.lifetime.start.p0(i64 4, ptr %20) #8
  %63 = load ptr, ptr %9, align 8, !tbaa !62
  %64 = call i32 @get_bits_count(ptr noundef %63)
  store i32 %64, ptr %20, align 4, !tbaa !11
  br label %65

65:                                               ; preds = %61
  %66 = load i32, ptr %19, align 4, !tbaa !11
  %67 = load i32, ptr %20, align 4, !tbaa !11
  %68 = icmp sle i32 %66, %67
  br i1 %68, label %70, label %69

69:                                               ; preds = %65
  call void (ptr, i32, ptr, ...) @av_log(ptr noundef null, i32 noundef 0, ptr noundef @.str.8, ptr noundef @.str.12, ptr noundef @.str.10, i32 noundef 46)
  call void @abort() #9
  unreachable

70:                                               ; preds = %65
  br label %71

71:                                               ; preds = %70
  br label %72

72:                                               ; preds = %71
  %73 = load ptr, ptr %8, align 8, !tbaa !4
  %74 = getelementptr inbounds nuw %struct.CodedBitstreamContext, ptr %73, i32 0, i32 8
  %75 = load ptr, ptr %74, align 8, !tbaa !77
  %76 = load ptr, ptr %8, align 8, !tbaa !4
  %77 = getelementptr inbounds nuw %struct.CodedBitstreamContext, ptr %76, i32 0, i32 7
  %78 = load ptr, ptr %77, align 8, !tbaa !78
  %79 = load i32, ptr %20, align 4, !tbaa !11
  %80 = load i32, ptr %19, align 4, !tbaa !11
  %81 = sub nsw i32 %79, %80
  %82 = load ptr, ptr %11, align 8, !tbaa !57
  %83 = load ptr, ptr %12, align 8, !tbaa !73
  %84 = load i32, ptr %16, align 4, !tbaa !11
  %85 = sext i32 %84 to i64
  call void %75(ptr noundef %78, ptr noundef %17, i32 noundef %81, ptr noundef %82, ptr noundef %83, i64 noundef %85)
  call void @llvm.lifetime.end.p0(i64 4, ptr %20) #8
  call void @llvm.lifetime.end.p0(i64 4, ptr %19) #8
  br label %86

86:                                               ; preds = %72, %56
  br label %87

87:                                               ; preds = %86
  br label %88

88:                                               ; preds = %87
  %89 = load i32, ptr %16, align 4, !tbaa !11
  %90 = load ptr, ptr %13, align 8, !tbaa !73
  store i32 %89, ptr %90, align 4, !tbaa !11
  store i32 0, ptr %7, align 4
  store i32 1, ptr %18, align 4
  br label %91

91:                                               ; preds = %88, %36
  call void @llvm.lifetime.end.p0(i64 32, ptr %17) #8
  call void @llvm.lifetime.end.p0(i64 4, ptr %16) #8
  call void @llvm.lifetime.end.p0(i64 4, ptr %15) #8
  call void @llvm.lifetime.end.p0(i64 4, ptr %14) #8
  %92 = load i32, ptr %7, align 4
  ret i32 %92
}