; Function Attrs: nounwind uwtable
define internal fastcc range(i32 -1094995529, 1) i32 @cbs_vp9_read_s(ptr noundef readonly captures(none) %0, ptr noundef nonnull captures(none) %1, i32 noundef range(i32 4, 7) %2, ptr noundef %3, ptr noundef %4, ptr noundef nonnull writeonly captures(none) %5) unnamed_addr #0 {
  %7 = alloca %struct.GetBitContext, align 8
  call void @llvm.lifetime.start.p0(i64 32, ptr nonnull %7) #8
  %8 = getelementptr inbounds nuw i8, ptr %0, i64 36
  %9 = load i32, ptr %8, align 4, !tbaa !23
  %.not = icmp eq i32 %9, 0
  br i1 %.not, label %11, label %10

10:                                               ; preds = %6
  call void @llvm.memcpy.p0.p0.i64(ptr noundef nonnull align 8 dereferenceable(32) %7, ptr noundef nonnull align 8 dereferenceable(32) %1, i64 32, i1 false), !tbaa.struct !27
  br label %11

11:                                               ; preds = %10, %6
  %12 = getelementptr i8, ptr %1, i64 16
  %.val32 = load i32, ptr %12, align 8, !tbaa !21
  %13 = getelementptr i8, ptr %1, i64 20
  %.val33 = load i32, ptr %13, align 4, !tbaa !18
  %14 = sub nsw i32 %.val33, %.val32
  %.not27 = icmp sgt i32 %14, %2
  br i1 %.not27, label %17, label %15

15:                                               ; preds = %11
  %16 = load ptr, ptr %0, align 8, !tbaa !29
  tail call void (ptr, i32, ptr, ...) @av_log(ptr noundef %16, i32 noundef 16, ptr noundef nonnull @.str.60, ptr noundef %3) #8
  br label %55

17:                                               ; preds = %11
  %18 = getelementptr inbounds nuw i8, ptr %1, i64 24
  %19 = load i32, ptr %18, align 8, !tbaa !19
  %20 = load ptr, ptr %1, align 8, !tbaa !16
  %21 = lshr i32 %.val32, 3
  %22 = zext nneg i32 %21 to i64
  %23 = getelementptr inbounds nuw i8, ptr %20, i64 %22
  %24 = load i32, ptr %23, align 1, !tbaa !15
  %25 = tail call i32 @llvm.bswap.i32(i32 %24)
  %26 = and i32 %.val32, 7
  %27 = shl i32 %25, %26
  %28 = sub nuw nsw i32 32, %2
  %29 = lshr i32 %27, %28
  %30 = add i32 %.val32, %2
  %31 = tail call i32 @llvm.umin.i32(i32 %19, i32 %30)
  store i32 %31, ptr %12, align 8, !tbaa !21
  %32 = lshr i32 %31, 3
  %33 = zext nneg i32 %32 to i64
  %34 = getelementptr inbounds nuw i8, ptr %20, i64 %33
  %35 = load i8, ptr %34, align 1, !tbaa !15
  %36 = icmp slt i32 %31, %19
  %37 = zext i1 %36 to i32
  %spec.select.i = add i32 %31, %37
  %38 = zext i8 %35 to i32
  %39 = and i32 %31, 7
  store i32 %spec.select.i, ptr %12, align 8, !tbaa !21
  %40 = lshr exact i32 128, %39
  %41 = and i32 %40, %38
  %.not28 = icmp eq i32 %41, 0
  %42 = sub nsw i32 0, %29
  %43 = select i1 %.not28, i32 %29, i32 %42
  br i1 %.not, label %54, label %44

44:                                               ; preds = %17
  %45 = getelementptr inbounds nuw i8, ptr %7, i64 16
  %.val31 = load i32, ptr %45, align 8, !tbaa !21
  %.not30 = icmp sgt i32 %.val31, %spec.select.i
  br i1 %.not30, label %46, label %47

46:                                               ; preds = %44
  tail call void (ptr, i32, ptr, ...) @av_log(ptr noundef null, i32 noundef 0, ptr noundef nonnull @.str.8, ptr noundef nonnull @.str.12, ptr noundef nonnull @.str.10, i32 noundef 46) #8
  tail call void @abort() #9
  unreachable

47:                                               ; preds = %44
  %48 = getelementptr inbounds nuw i8, ptr %0, i64 56
  %49 = load ptr, ptr %48, align 8, !tbaa !32
  %50 = getelementptr inbounds nuw i8, ptr %0, i64 48
  %51 = load ptr, ptr %50, align 8, !tbaa !33
  %52 = sub nsw i32 %spec.select.i, %.val31
  %53 = sext i32 %43 to i64
  call void %49(ptr noundef %51, ptr noundef nonnull %7, i32 noundef %52, ptr noundef %3, ptr noundef %4, i64 noundef %53) #8
  br label %54

54:                                               ; preds = %47, %17
  store i32 %43, ptr %5, align 4, !tbaa !22
  br label %55

55:                                               ; preds = %54, %15
  %.0 = phi i32 [ -1094995529, %15 ], [ 0, %54 ]
  call void @llvm.lifetime.end.p0(i64 32, ptr nonnull %7) #8
  ret i32 %.0
}